target datalayout = "e-m:e-p270:32:32-p271:32:32-p272:64:64-i64:64-i128:128-f80:128-n8:16:32:64-S128"
target triple = "x86_64-pc-linux-gnu"

%struct.siphash = type { i64, i64, i64, i64, [8 x i8], ptr, i64 }

; Function Attrs: nounwind uwtable
define internal void @sip_round(ptr noundef %0, i32 noundef %1) #0 {
  %3 = alloca ptr, align 8
  %4 = alloca i32, align 4
  %5 = alloca i32, align 4
  store ptr %0, ptr %3, align 8, !tbaa !355
  store i32 %1, ptr %4, align 4, !tbaa !177
  call void @llvm.lifetime.start.p0(i64 4, ptr %5) #10
  store i32 0, ptr %5, align 4, !tbaa !177
  br label %6

6:                                                ; preds = %133, %2
  %7 = load i32, ptr %5, align 4, !tbaa !177
  %8 = load i32, ptr %4, align 4, !tbaa !177
  %9 = icmp slt i32 %7, %8
  br i1 %9, label %10, label %136

10:                                               ; preds = %6
  %11 = load ptr, ptr %3, align 8, !tbaa !355
  %12 = getelementptr inbounds nuw %struct.siphash, ptr %11, i32 0, i32 1
  %13 = load i64, ptr %12, align 8, !tbaa !359
  %14 = load ptr, ptr %3, align 8, !tbaa !355
  %15 = getelementptr inbounds nuw %struct.siphash, ptr %14, i32 0, i32 0
  %16 = load i64, ptr %15, align 8, !tbaa !357
  %17 = add i64 %16, %13
  store i64 %17, ptr %15, align 8, !tbaa !357
  %18 = load ptr, ptr %3, align 8, !tbaa !355
  %19 = getelementptr inbounds nuw %struct.siphash, ptr %18, i32 0, i32 1
  %20 = load i64, ptr %19, align 8, !tbaa !359
  %21 = shl i64 %20, 13
  %22 = load ptr, ptr %3, align 8, !tbaa !355
  %23 = getelementptr inbounds nuw %struct.siphash, ptr %22, i32 0, i32 1
  %24 = load i64, ptr %23, align 8, !tbaa !359
  %25 = lshr i64 %24, 51
  %26 = or i64 %21, %25
  %27 = load ptr, ptr %3, align 8, !tbaa !355
  %28 = getelementptr inbounds nuw %struct.siphash, ptr %27, i32 0, i32 1
  store i64 %26, ptr %28, align 8, !tbaa !359
  %29 = load ptr, ptr %3, align 8, !tbaa !355
  %30 = getelementptr inbounds nuw %struct.siphash, ptr %29, i32 0, i32 0
  %31 = load i64, ptr %30, align 8, !tbaa !357
  %32 = load ptr, ptr %3, align 8, !tbaa !355
  %33 = getelementptr inbounds nuw %struct.siphash, ptr %32, i32 0, i32 1
  %34 = load i64, ptr %33, align 8, !tbaa !359
  %35 = xor i64 %34, %31
  store i64 %35, ptr %33, align 8, !tbaa !359
  %36 = load ptr, ptr %3, align 8, !tbaa !355
  %37 = getelementptr inbounds nuw %struct.siphash, ptr %36, i32 0, i32 0
  %38 = load i64, ptr %37, align 8, !tbaa !357
  %39 = shl i64 %38, 32
  %40 = load ptr, ptr %3, align 8, !tbaa !355
  %41 = getelementptr inbounds nuw %struct.siphash, ptr %40, i32 0, i32 0
  %42 = load i64, ptr %41, align 8, !tbaa !357
  %43 = lshr i64 %42, 32
  %44 = or i64 %39, %43
  %45 = load ptr, ptr %3, align 8, !tbaa !355
  %46 = getelementptr inbounds nuw %struct.siphash, ptr %45, i32 0, i32 0
  store i64 %44, ptr %46, align 8, !tbaa !357
  %47 = load ptr, ptr %3, align 8, !tbaa !355
  %48 = getelementptr inbounds nuw %struct.siphash, ptr %47, i32 0, i32 3
  %49 = load i64, ptr %48, align 8, !tbaa !361
  %50 = load ptr, ptr %3, align 8, !tbaa !355
  %51 = getelementptr inbounds nuw %struct.siphash, ptr %50, i32 0, i32 2
  %52 = load i64, ptr %51, align 8, !tbaa !360
  %53 = add i64 %52, %49
  store i64 %53, ptr %51, align 8, !tbaa !360
  %54 = load ptr, ptr %3, align 8, !tbaa !355
  %55 = getelementptr inbounds nuw %struct.siphash, ptr %54, i32 0, i32 3
  %56 = load i64, ptr %55, align 8, !tbaa !361
  %57 = shl i64 %56, 16
  %58 = load ptr, ptr %3, align 8, !tbaa !355
  %59 = getelementptr inbounds nuw %struct.siphash, ptr %58, i32 0, i32 3
  %60 = load i64, ptr %59, align 8, !tbaa !361
  %61 = lshr i64 %60, 48
  %62 = or i64 %57, %61
  %63 = load ptr, ptr %3, align 8, !tbaa !355
  %64 = getelementptr inbounds nuw %struct.siphash, ptr %63, i32 0, i32 3
  store i64 %62, ptr %64, align 8, !tbaa !361
  %65 = load ptr, ptr %3, align 8, !tbaa !355
  %66 = getelementptr inbounds nuw %struct.siphash, ptr %65, i32 0, i32 2
  %67 = load i64, ptr %66, align 8, !tbaa !360
  %68 = load ptr, ptr %3, align 8, !tbaa !355
  %69 = getelementptr inbounds nuw %struct.siphash, ptr %68, i32 0, i32 3
  %70 = load i64, ptr %69, align 8, !tbaa !361
  %71 = xor i64 %70, %67
  store i64 %71, ptr %69, align 8, !tbaa !361
  %72 = load ptr, ptr %3, align 8, !tbaa !355
  %73 = getelementptr inbounds nuw %struct.siphash, ptr %72, i32 0, i32 3
  %74 = load i64, ptr %73, align 8, !tbaa !361
  %75 = load ptr, ptr %3, align 8, !tbaa !355
  %76 = getelementptr inbounds nuw %struct.siphash, ptr %75, i32 0, i32 0
  %77 = load i64, ptr %76, align 8, !tbaa !357
  %78 = add i64 %77, %74
  store i64 %78, ptr %76, align 8, !tbaa !357
  %79 = load ptr, ptr %3, align 8, !tbaa !355
  %80 = getelementptr inbounds nuw %struct.siphash, ptr %79, i32 0, i32 3
  %81 = load i64, ptr %80, align 8, !tbaa !361
  %82 = shl i64 %81, 21
  %83 = load ptr, ptr %3, align 8, !tbaa !355
  %84 = getelementptr inbounds nuw %struct.siphash, ptr %83, i32 0, i32 3
  %85 = load i64, ptr %84, align 8, !tbaa !361
  %86 = lshr i64 %85, 43
  %87 = or i64 %82, %86
  %88 = load ptr, ptr %3, align 8, !tbaa !355
  %89 = getelementptr inbounds nuw %struct.siphash, ptr %88, i32 0, i32 3
  store i64 %87, ptr %89, align 8, !tbaa !361
  %90 = load ptr, ptr %3, align 8, !tbaa !355
  %91 = getelementptr inbounds nuw %struct.siphash, ptr %90, i32 0, i32 0
  %92 = load i64, ptr %91, align 8, !tbaa !357
  %93 = load ptr, ptr %3, align 8, !tbaa !355
  %94 = getelementptr inbounds nuw %struct.siphash, ptr %93, i32 0, i32 3
  %95 = load i64, ptr %94, align 8, !tbaa !361
  %96 = xor i64 %95, %92
  store i64 %96, ptr %94, align 8, !tbaa !361
  %97 = load ptr, ptr %3, align 8, !tbaa !355
  %98 = getelementptr inbounds nuw %struct.siphash, ptr %97, i32 0, i32 1
  %99 = load i64, ptr %98, align 8, !tbaa !359
  %100 = load ptr, ptr %3, align 8, !tbaa !355
  %101 = getelementptr inbounds nuw %struct.siphash, ptr %100, i32 0, i32 2
  %102 = load i64, ptr %101, align 8, !tbaa !360
  %103 = add i64 %102, %99
  store i64 %103, ptr %101, align 8, !tbaa !360
  %104 = load ptr, ptr %3, align 8, !tbaa !355
  %105 = getelementptr inbounds nuw %struct.siphash, ptr %104, i32 0, i32 1
  %106 = load i64, ptr %105, align 8, !tbaa !359
  %107 = shl i64 %106, 17
  %108 = load ptr, ptr %3, align 8, !tbaa !355
  %109 = getelementptr inbounds nuw %struct.siphash, ptr %108, i32 0, i32 1
  %110 = load i64, ptr %109, align 8, !tbaa !359
  %111 = lshr i64 %110, 47
  %112 = or i64 %107, %111
  %113 = load ptr, ptr %3, align 8, !tbaa !355
  %114 = getelementptr inbounds nuw %struct.siphash, ptr %113, i32 0, i32 1
  store i64 %112, ptr %114, align 8, !tbaa !359
  %115 = load ptr, ptr %3, align 8, !tbaa !355
  %116 = getelementptr inbounds nuw %struct.siphash, ptr %115, i32 0, i32 2
  %117 = load i64, ptr %116, align 8, !tbaa !360
  %118 = load ptr, ptr %3, align 8, !tbaa !355
  %119 = getelementptr inbounds nuw %struct.siphash, ptr %118, i32 0, i32 1
  %120 = load i64, ptr %119, align 8, !tbaa !359
  %121 = xor i64 %120, %117
  store i64 %121, ptr %119, align 8, !tbaa !359
  %122 = load ptr, ptr %3, align 8, !tbaa !355
  %123 = getelementptr inbounds nuw %struct.siphash, ptr %122, i32 0, i32 2
  %124 = load i64, ptr %123, align 8, !tbaa !360
  %125 = shl i64 %124, 32
  %126 = load ptr, ptr %3, align 8, !tbaa !355
  %127 = getelementptr inbounds nuw %struct.siphash, ptr %126, i32 0, i32 2
  %128 = load i64, ptr %127, align 8, !tbaa !360
  %129 = lshr i64 %128, 32
  %130 = or i64 %125, %129
  %131 = load ptr, ptr %3, align 8, !tbaa !355
  %132 = getelementptr inbounds nuw %struct.siphash, ptr %131, i32 0, i32 2
  store i64 %130, ptr %132, align 8, !tbaa !360
  br label %133

133:                                              ; preds = %10
  %134 = load i32, ptr %5, align 4, !tbaa !177
  %135 = add nsw i32 %134, 1
  store i32 %135, ptr %5, align 4, !tbaa !177
  br label %6, !llvm.loop !367

136:                                              ; preds = %6
  call void @llvm.lifetime.end.p0(i64 4, ptr %5) #10
  ret void
}

; Function Attrs: nounwind uwtable
define internal ptr @sip24_update(ptr noundef %0, ptr noundef %1, i64 noundef %2) #0 {
  %4 = alloca ptr, align 8
  %5 = alloca ptr, align 8
  %6 = alloca i64, align 8
  %7 = alloca ptr, align 8
  %8 = alloca ptr, align 8
  %9 = alloca i64, align 8
  store ptr %0, ptr %4, align 8, !tbaa !355
  store ptr %1, ptr %5, align 8, !tbaa !9
  store i64 %2, ptr %6, align 8, !tbaa !161
  call void @llvm.lifetime.start.p0(i64 8, ptr %7) #10
  %10 = load ptr, ptr %5, align 8, !tbaa !9
  store ptr %10, ptr %7, align 8, !tbaa !4
  call void @llvm.lifetime.start.p0(i64 8, ptr %8) #10
  %11 = load ptr, ptr %7, align 8, !tbaa !4
  %12 = load i64, ptr %6, align 8, !tbaa !161
  %13 = getelementptr inbounds nuw i8, ptr %11, i64 %12
  store ptr %13, ptr %8, align 8, !tbaa !4
  call void @llvm.lifetime.start.p0(i64 8, ptr %9) #10
  br label %14

14:                                               ; preds = %122, %3
  br label %15

15:                                               ; preds = %29, %14
  %16 = load ptr, ptr %7, align 8, !tbaa !4
  %17 = load ptr, ptr %8, align 8, !tbaa !4
  %18 = icmp ult ptr %16, %17
  br i1 %18, label %19, label %27

19:                                               ; preds = %15
  %20 = load ptr, ptr %4, align 8, !tbaa !355
  %21 = getelementptr inbounds nuw %struct.siphash, ptr %20, i32 0, i32 5
  %22 = load ptr, ptr %21, align 8, !tbaa !362
  %23 = load ptr, ptr %4, align 8, !tbaa !355
  %24 = getelementptr inbounds nuw %struct.siphash, ptr %23, i32 0, i32 4
  %25 = getelementptr inbounds nuw [8 x i8], ptr %24, i64 0, i64 8
  %26 = icmp ult ptr %22, %25
  br label %27

27:                                               ; preds = %19, %15
  %28 = phi i1 [ false, %15 ], [ %26, %19 ]
  br i1 %28, label %29, label %37

29:                                               ; preds = %27
  %30 = load ptr, ptr %7, align 8, !tbaa !4
  %31 = getelementptr inbounds nuw i8, ptr %30, i32 1
  store ptr %31, ptr %7, align 8, !tbaa !4
  %32 = load i8, ptr %30, align 1, !tbaa !10
  %33 = load ptr, ptr %4, align 8, !tbaa !355
  %34 = getelementptr inbounds nuw %struct.siphash, ptr %33, i32 0, i32 5
  %35 = load ptr, ptr %34, align 8, !tbaa !362
  %36 = getelementptr inbounds nuw i8, ptr %35, i32 1
  store ptr %36, ptr %34, align 8, !tbaa !362
  store i8 %32, ptr %35, align 1, !tbaa !10
  br label %15, !llvm.loop !364

37:                                               ; preds = %27
  %38 = load ptr, ptr %4, align 8, !tbaa !355
  %39 = getelementptr inbounds nuw %struct.siphash, ptr %38, i32 0, i32 5
  %40 = load ptr, ptr %39, align 8, !tbaa !362
  %41 = load ptr, ptr %4, align 8, !tbaa !355
  %42 = getelementptr inbounds nuw %struct.siphash, ptr %41, i32 0, i32 4
  %43 = getelementptr inbounds nuw [8 x i8], ptr %42, i64 0, i64 8
  %44 = icmp ult ptr %40, %43
  br i1 %44, label %45, label %46

45:                                               ; preds = %37
  br label %126

46:                                               ; preds = %37
  %47 = load ptr, ptr %4, align 8, !tbaa !355
  %48 = getelementptr inbounds nuw %struct.siphash, ptr %47, i32 0, i32 4
  %49 = getelementptr inbounds [8 x i8], ptr %48, i64 0, i64 0
  %50 = load i8, ptr %49, align 8, !tbaa !10
  %51 = zext i8 %50 to i64
  %52 = shl i64 %51, 0
  %53 = load ptr, ptr %4, align 8, !tbaa !355
  %54 = getelementptr inbounds nuw %struct.siphash, ptr %53, i32 0, i32 4
  %55 = getelementptr inbounds [8 x i8], ptr %54, i64 0, i64 1
  %56 = load i8, ptr %55, align 1, !tbaa !10
  %57 = zext i8 %56 to i64
  %58 = shl i64 %57, 8
  %59 = or i64 %52, %58
  %60 = load ptr, ptr %4, align 8, !tbaa !355
  %61 = getelementptr inbounds nuw %struct.siphash, ptr %60, i32 0, i32 4
  %62 = getelementptr inbounds [8 x i8], ptr %61, i64 0, i64 2
  %63 = load i8, ptr %62, align 2, !tbaa !10
  %64 = zext i8 %63 to i64
  %65 = shl i64 %64, 16
  %66 = or i64 %59, %65
  %67 = load ptr, ptr %4, align 8, !tbaa !355
  %68 = getelementptr inbounds nuw %struct.siphash, ptr %67, i32 0, i32 4
  %69 = getelementptr inbounds [8 x i8], ptr %68, i64 0, i64 3
  %70 = load i8, ptr %69, align 1, !tbaa !10
  %71 = zext i8 %70 to i64
  %72 = shl i64 %71, 24
  %73 = or i64 %66, %72
  %74 = load ptr, ptr %4, align 8, !tbaa !355
  %75 = getelementptr inbounds nuw %struct.siphash, ptr %74, i32 0, i32 4
  %76 = getelementptr inbounds [8 x i8], ptr %75, i64 0, i64 4
  %77 = load i8, ptr %76, align 4, !tbaa !10
  %78 = zext i8 %77 to i64
  %79 = shl i64 %78, 32
  %80 = or i64 %73, %79
  %81 = load ptr, ptr %4, align 8, !tbaa !355
  %82 = getelementptr inbounds nuw %struct.siphash, ptr %81, i32 0, i32 4
  %83 = getelementptr inbounds [8 x i8], ptr %82, i64 0, i64 5
  %84 = load i8, ptr %83, align 1, !tbaa !10
  %85 = zext i8 %84 to i64
  %86 = shl i64 %85, 40
  %87 = or i64 %80, %86
  %88 = load ptr, ptr %4, align 8, !tbaa !355
  %89 = getelementptr inbounds nuw %struct.siphash, ptr %88, i32 0, i32 4
  %90 = getelementptr inbounds [8 x i8], ptr %89, i64 0, i64 6
  %91 = load i8, ptr %90, align 2, !tbaa !10
  %92 = zext i8 %91 to i64
  %93 = shl i64 %92, 48
  %94 = or i64 %87, %93
  %95 = load ptr, ptr %4, align 8, !tbaa !355
  %96 = getelementptr inbounds nuw %struct.siphash, ptr %95, i32 0, i32 4
  %97 = getelementptr inbounds [8 x i8], ptr %96, i64 0, i64 7
  %98 = load i8, ptr %97, align 1, !tbaa !10
  %99 = zext i8 %98 to i64
  %100 = shl i64 %99, 56
  %101 = or i64 %94, %100
  store i64 %101, ptr %9, align 8, !tbaa !161
  %102 = load i64, ptr %9, align 8, !tbaa !161
  %103 = load ptr, ptr %4, align 8, !tbaa !355
  %104 = getelementptr inbounds nuw %struct.siphash, ptr %103, i32 0, i32 3
  %105 = load i64, ptr %104, align 8, !tbaa !361
  %106 = xor i64 %105, %102
  store i64 %106, ptr %104, align 8, !tbaa !361
  %107 = load ptr, ptr %4, align 8, !tbaa !355
  call void @sip_round(ptr noundef %107, i32 noundef 2)
  %108 = load i64, ptr %9, align 8, !tbaa !161
  %109 = load ptr, ptr %4, align 8, !tbaa !355
  %110 = getelementptr inbounds nuw %struct.siphash, ptr %109, i32 0, i32 0
  %111 = load i64, ptr %110, align 8, !tbaa !357
  %112 = xor i64 %111, %108
  store i64 %112, ptr %110, align 8, !tbaa !357
  %113 = load ptr, ptr %4, align 8, !tbaa !355
  %114 = getelementptr inbounds nuw %struct.siphash, ptr %113, i32 0, i32 4
  %115 = getelementptr inbounds [8 x i8], ptr %114, i64 0, i64 0
  %116 = load ptr, ptr %4, align 8, !tbaa !355
  %117 = getelementptr inbounds nuw %struct.siphash, ptr %116, i32 0, i32 5
  store ptr %115, ptr %117, align 8, !tbaa !362
  %118 = load ptr, ptr %4, align 8, !tbaa !355
  %119 = getelementptr inbounds nuw %struct.siphash, ptr %118, i32 0, i32 6
  %120 = load i64, ptr %119, align 8, !tbaa !363
  %121 = add i64 %120, 8
  store i64 %121, ptr %119, align 8, !tbaa !363
  br label %122

122:                                              ; preds = %46
  %123 = load ptr, ptr %7, align 8, !tbaa !4
  %124 = load ptr, ptr %8, align 8, !tbaa !4
  %125 = icmp ult ptr %123, %124
  br i1 %125, label %14, label %126, !llvm.loop !365

126:                                              ; preds = %122, %45
  %127 = load ptr, ptr %4, align 8, !tbaa !355
  call void @llvm.lifetime.end.p0(i64 8, ptr %9) #10
  call void @llvm.lifetime.end.p0(i64 8, ptr %8) #10
  call void @llvm.lifetime.end.p0(i64 8, ptr %7) #10
  ret ptr %127
}